target datalayout = "e-m:e-p270:32:32-p271:32:32-p272:64:64-i64:64-i128:128-f80:128-n8:16:32:64-S128"
target triple = "x86_64-pc-linux-gnu"

%"class.vcg::Color4" = type { %"class.vcg::Point4" }
%"class.vcg::Point4" = type { [4 x i8] }
%"class.vcg::Rubberband" = type <{ ptr, %"class.vcg::Color4", i32, %class.QPoint, %"class.vcg::Point3", %"class.vcg::Point3", i8, [7 x i8] }>
%class.QPoint = type { i32, i32 }
%"class.vcg::Point3" = type { [3 x float] }

; Function Attrs: mustprogress nounwind uwtable
define noundef zeroext i1 @_ZN3vcg10Rubberband7IsReadyEv(ptr noundef nonnull align 8 dereferenceable(49) %0) #4 align 2 {
  %2 = alloca ptr, align 8
  store ptr %0, ptr %2, align 8
  %3 = load ptr, ptr %2, align 8
  %4 = getelementptr inbounds %"class.vcg::Rubberband", ptr %3, i32 0, i32 2
  %5 = load i32, ptr %4, align 4
  %6 = icmp eq i32 %5, 2
  ret i1 %6
}

; Function Attrs: mustprogress uwtable
define void @_ZN3vcg10Rubberband3PinE6QPoint(ptr noundef nonnull align 8 dereferenceable(49) %0, i64 %1) #5 align 2 {
  %3 = alloca %class.QPoint, align 4
  %4 = alloca ptr, align 8
  store i64 %1, ptr %3, align 4
  store ptr %0, ptr %4, align 8
  %5 = load ptr, ptr %4, align 8
  %6 = call noundef zeroext i1 @_ZN3vcg10Rubberband7IsReadyEv(ptr noundef nonnull align 8 dereferenceable(49) %5)
  br i1 %6, label %7, label %8

7:                                                ; preds = %2
  br label %11

8:                                                ; preds = %2
  %9 = getelementptr inbounds %"class.vcg::Rubberband", ptr %5, i32 0, i32 3
  call void @llvm.memcpy.p0.p0.i64(ptr align 8 %9, ptr align 4 %3, i64 8, i1 false)
  %10 = getelementptr inbounds %"class.vcg::Rubberband", ptr %5, i32 0, i32 6
  store i8 1, ptr %10, align 8
  br label %11

11:                                               ; preds = %8, %7
  ret void
}