; Function Attrs: mustprogress nofree norecurse nosync nounwind willreturn memory(argmem: readwrite) uwtable
define void @_ZN3vcg10Rubberband3PinE6QPoint(ptr nocapture noundef nonnull align 8 dereferenceable(49) %0, i64 %1) local_unnamed_addr #10 align 2 {
  %3 = getelementptr inbounds i8, ptr %0, i64 12
  %4 = load i32, ptr %3, align 4
  %5 = icmp eq i32 %4, 2
  br i1 %5, label %9, label %6

6:                                                ; preds = %2
  %7 = getelementptr inbounds i8, ptr %0, i64 16
  store i64 %1, ptr %7, align 8
  %8 = getelementptr inbounds i8, ptr %0, i64 48
  store i8 1, ptr %8, align 8
  br label %9

9:                                                ; preds = %2, %6
  ret void
}